(dp0
S'username'
p1
S'ellogino'
p2
sS'useremail'
p3
S'grhd@gdhg.fr'
p4
sS'firstname'
p5
S'alain'
p6
sS'lastname'
p7
S'dupond'
p8
sS'birthdate'
p9
S'Facultatif'
p10
sS'userpwd'
p11
S'04e59dd1a785a155d3ba95e72fa5d8184ceab718526c64cbf553491b9fa4bcb4a20611434fe166fd3a08032c8697f2654ce917c861c393713c18f0951170f027'
p12
s.